; Function Attrs: nounwind uwtable
define ptr @l_IO_Promise_resultD___rarg___boxed(ptr noundef %0, ptr noundef %1) #0 {
  tail call void @lean_inc_heartbeat() #3
  %3 = tail call noalias ptr @mi_malloc_small(i64 noundef 32) #3
  %4 = icmp eq ptr %3, null
  br i1 %4, label %5, label %l_IO_Promise_resultD___rarg.exit

5:                                                ; preds = %2
  tail call void @lean_internal_panic_out_of_memory() #4
  unreachable

l_IO_Promise_resultD___rarg.exit:                 ; preds = %2
  %6 = getelementptr inbounds nuw i8, ptr %3, i64 4
  store i32 1, ptr %3, align 4, !tbaa !4
  store i32 -184549344, ptr %6, align 4
  %7 = getelementptr inbounds nuw i8, ptr %3, i64 8
  store ptr @l_IO_Promise_resultD___rarg___lambda__1___boxed, ptr %7, align 8, !tbaa !10
  %8 = getelementptr inbounds nuw i8, ptr %3, i64 16
  store i16 2, ptr %8, align 8, !tbaa !12
  %9 = getelementptr inbounds nuw i8, ptr %3, i64 18
  store i16 1, ptr %9, align 2, !tbaa !12
  %10 = getelementptr inbounds nuw i8, ptr %3, i64 24
  store ptr %1, ptr %10, align 8, !tbaa !10
  %11 = tail call ptr @lean_io_promise_result_opt(ptr noundef %0) #3
  %12 = load ptr, ptr @l_Task_Priority_default, align 8, !tbaa !10
  %13 = ptrtoint ptr %12 to i64
  %14 = lshr i64 %13, 1
  %15 = trunc i64 %14 to i32
  %16 = tail call ptr @lean_task_map_core(ptr noundef nonnull %3, ptr noundef %11, i32 noundef %15, i1 noundef zeroext true, i1 noundef zeroext false) #3
  %17 = ptrtoint ptr %0 to i64
  %18 = and i64 %17, 1
  %.not = icmp eq i64 %18, 0
  br i1 %.not, label %19, label %lean_dec.exit

19:                                               ; preds = %l_IO_Promise_resultD___rarg.exit
  %20 = load i32, ptr %0, align 4, !tbaa !4
  %21 = icmp sgt i32 %20, 1
  br i1 %21, label %22, label %24, !prof !9

22:                                               ; preds = %19
  %23 = add nsw i32 %20, -1
  store i32 %23, ptr %0, align 4, !tbaa !4
  br label %lean_dec.exit

24:                                               ; preds = %19
  %.not.i = icmp eq i32 %20, 0
  br i1 %.not.i, label %lean_dec.exit, label %25

25:                                               ; preds = %24
  tail call void @lean_dec_ref_cold(ptr noundef nonnull %0) #3
  br label %lean_dec.exit

lean_dec.exit:                                    ; preds = %25, %24, %22, %l_IO_Promise_resultD___rarg.exit
  ret ptr %16
}